ccopy_reg
_reconstructor
p0
(c__main__
Session
p1
c__builtin__
object
p2
Ntp3
Rp4
(dp5
S'temperature'
p6
F300.0
sS'pattern'
p7
NsS'waterfallpatterns'
p8
(lp9
sS'jcpds_path'
p10
S''
p11
sS'pressure'
p12
F10.0
sS'chi_path'
p13
g11
sS'bg_roi'
p14
(lp15
F4.0
aF20.0
asS'wavelength'
p16
F0.3344
sS'jlist'
p17
(lp18
sS'bg_params'
p19
(lp20
I10
aI10
aI50
asb.